target datalayout = "e-m:e-p270:32:32-p271:32:32-p272:64:64-i64:64-i128:128-f80:128-n8:16:32:64-S128"
target triple = "x86_64-pc-linux-gnu"

%"class.std::__cxx11::basic_string" = type { %"struct.std::__cxx11::basic_string<char>::_Alloc_hider", i64, %union.anon }
%"struct.std::__cxx11::basic_string<char>::_Alloc_hider" = type { ptr }
%union.anon = type { i64, [8 x i8] }
%"class.(anonymous namespace)::Helper" = type { ptr, ptr, %"class.std::__cxx11::basic_string" }
%class.cmListFileBacktrace = type { %class.cmConstStack }
%class.cmConstStack = type { %"class.std::shared_ptr" }
%"class.std::shared_ptr" = type { %"class.std::__shared_ptr" }
%"class.std::__shared_ptr" = type { ptr, %"class.std::__shared_count" }
%"class.std::__shared_count" = type { ptr }
%class.anon.613 = type { %"class.(anonymous namespace)::Helper" }
%"class.std::unique_ptr.614" = type { %"struct.std::__uniq_ptr_data.615" }
%"struct.std::__uniq_ptr_data.615" = type { %"class.std::__uniq_ptr_impl.616" }
%"class.std::__uniq_ptr_impl.616" = type { %"class.std::tuple.617" }
%"class.std::tuple.617" = type { %"struct.std::_Tuple_impl.618" }
%"struct.std::_Tuple_impl.618" = type { %"struct.std::_Head_base.621" }
%"struct.std::_Head_base.621" = type { ptr }

; Function Attrs: mustprogress uwtable
define internal void @"_ZZN12_GLOBAL__N_134HandleImportedRuntimeArtifactsModeERKSt6vectorINSt7__cxx1112basic_stringIcSt11char_traitsIcESaIcEEESaIS6_EER17cmExecutionStatusENK3$_0clER8cmTargetRK25cmInstallCommandArgumentsRKS6_"(ptr dead_on_unwind noalias writable sret(%"class.std::unique_ptr.614") align 8 %0, ptr noundef nonnull align 8 dereferenceable(48) %1, ptr noundef nonnull align 8 dereferenceable(8) %2, ptr noundef nonnull align 8 dereferenceable(440) %3, ptr noundef nonnull align 8 dereferenceable(32) %4) #6 align 2 personality ptr @__gxx_personality_v0 {
  %6 = alloca ptr, align 8
  %7 = alloca ptr, align 8
  %8 = alloca ptr, align 8
  %9 = alloca ptr, align 8
  %10 = alloca ptr, align 8
  %11 = alloca i32, align 4
  %12 = alloca i8, align 1
  %13 = alloca i8, align 1
  %14 = alloca %class.cmListFileBacktrace, align 8
  %15 = alloca ptr, align 8
  %16 = alloca i32, align 4
  store ptr %0, ptr %6, align 8
  store ptr %1, ptr %7, align 8
  store ptr %2, ptr %8, align 8
  store ptr %3, ptr %9, align 8
  store ptr %4, ptr %10, align 8
  %17 = load ptr, ptr %7, align 8
  %18 = load ptr, ptr %8, align 8
  %19 = call noundef nonnull align 8 dereferenceable(32) ptr @_ZNK8cmTarget7GetNameB5cxx11Ev(ptr noundef nonnull align 8 dereferenceable(8) %18)
  %20 = load ptr, ptr %10, align 8
  %21 = load ptr, ptr %9, align 8
  %22 = call noundef nonnull align 8 dereferenceable(32) ptr @_ZNK25cmInstallCommandArguments14GetPermissionsB5cxx11Ev(ptr noundef nonnull align 8 dereferenceable(440) %21)
  %23 = load ptr, ptr %9, align 8
  %24 = call noundef nonnull align 8 dereferenceable(24) ptr @_ZNK25cmInstallCommandArguments17GetConfigurationsB5cxx11Ev(ptr noundef nonnull align 8 dereferenceable(440) %23)
  %25 = load ptr, ptr %9, align 8
  %26 = call noundef nonnull align 8 dereferenceable(32) ptr @_ZNK25cmInstallCommandArguments12GetComponentB5cxx11Ev(ptr noundef nonnull align 8 dereferenceable(440) %25)
  %27 = getelementptr inbounds %class.anon.613, ptr %17, i32 0, i32 0
  %28 = getelementptr inbounds %"class.(anonymous namespace)::Helper", ptr %27, i32 0, i32 1
  %29 = load ptr, ptr %28, align 8
  %30 = call noundef i32 @_ZN18cmInstallGenerator18SelectMessageLevelEP10cmMakefileb(ptr noundef %29, i1 noundef zeroext false)
  store i32 %30, ptr %11, align 4
  %31 = load ptr, ptr %9, align 8
  %32 = call noundef zeroext i1 @_ZNK25cmInstallCommandArguments17GetExcludeFromAllEv(ptr noundef nonnull align 8 dereferenceable(440) %31)
  %33 = zext i1 %32 to i8
  store i8 %33, ptr %12, align 1
  %34 = load ptr, ptr %9, align 8
  %35 = call noundef zeroext i1 @_ZNK25cmInstallCommandArguments11GetOptionalEv(ptr noundef nonnull align 8 dereferenceable(440) %34)
  %36 = zext i1 %35 to i8
  store i8 %36, ptr %13, align 1
  %37 = getelementptr inbounds %class.anon.613, ptr %17, i32 0, i32 0
  %38 = getelementptr inbounds %"class.(anonymous namespace)::Helper", ptr %37, i32 0, i32 1
  %39 = load ptr, ptr %38, align 8
  call void @_ZNK10cmMakefile12GetBacktraceEv(ptr dead_on_unwind writable sret(%class.cmListFileBacktrace) align 8 %14, ptr noundef nonnull align 8 dereferenceable(3520) %39)
  invoke void @_ZSt11make_uniqueI42cmInstallImportedRuntimeArtifactsGeneratorJRKNSt7__cxx1112basic_stringIcSt11char_traitsIcESaIcEEES8_S8_RKSt6vectorIS6_SaIS6_EES8_N18cmInstallGenerator12MessageLevelEbb19cmListFileBacktraceEENSt8__detail9_MakeUniqIT_E15__single_objectEDpOT0_(ptr dead_on_unwind writable sret(%"class.std::unique_ptr.614") align 8 %0, ptr noundef nonnull align 8 dereferenceable(32) %19, ptr noundef nonnull align 8 dereferenceable(32) %20, ptr noundef nonnull align 8 dereferenceable(32) %22, ptr noundef nonnull align 8 dereferenceable(24) %24, ptr noundef nonnull align 8 dereferenceable(32) %26, ptr noundef nonnull align 4 dereferenceable(4) %11, ptr noundef nonnull align 1 dereferenceable(1) %12, ptr noundef nonnull align 1 dereferenceable(1) %13, ptr noundef nonnull align 8 dereferenceable(16) %14)
          to label %40 unwind label %41

40:                                               ; preds = %5
  call void @_ZN19cmListFileBacktraceD2Ev(ptr noundef nonnull align 8 dereferenceable(16) %14) #3
  ret void

41:                                               ; preds = %5
  %42 = landingpad { ptr, i32 }
          cleanup
  %43 = extractvalue { ptr, i32 } %42, 0
  store ptr %43, ptr %15, align 8
  %44 = extractvalue { ptr, i32 } %42, 1
  store i32 %44, ptr %16, align 4
  call void @_ZN19cmListFileBacktraceD2Ev(ptr noundef nonnull align 8 dereferenceable(16) %14) #3
  br label %45

45:                                               ; preds = %41
  %46 = load ptr, ptr %15, align 8
  %47 = load i32, ptr %16, align 4
  %48 = insertvalue { ptr, i32 } poison, ptr %46, 0
  %49 = insertvalue { ptr, i32 } %48, i32 %47, 1
  resume { ptr, i32 } %49
}