; Function Attrs: mustprogress uwtable
define internal fastcc void @"_ZZN12_GLOBAL__N_134HandleImportedRuntimeArtifactsModeERKSt6vectorINSt7__cxx1112basic_stringIcSt11char_traitsIcESaIcEEESaIS6_EER17cmExecutionStatusENK3$_0clER8cmTargetRK25cmInstallCommandArgumentsRKS6_"(ptr dead_on_unwind noalias writable align 8 %0, ptr nocapture noundef nonnull readonly align 8 dereferenceable(48) %1, ptr noundef nonnull align 8 dereferenceable(8) %2, ptr noundef nonnull align 8 dereferenceable(440) %3, ptr noundef nonnull align 8 dereferenceable(32) %4) unnamed_addr #5 align 2 personality ptr @__gxx_personality_v0 {
  %6 = alloca i32, align 4
  %7 = alloca i8, align 1
  %8 = alloca i8, align 1
  %9 = alloca %class.cmListFileBacktrace, align 8
  %10 = tail call noundef nonnull align 8 dereferenceable(32) ptr @_ZNK8cmTarget7GetNameB5cxx11Ev(ptr noundef nonnull align 8 dereferenceable(8) %2)
  %11 = tail call noundef nonnull align 8 dereferenceable(32) ptr @_ZNK25cmInstallCommandArguments14GetPermissionsB5cxx11Ev(ptr noundef nonnull align 8 dereferenceable(440) %3)
  %12 = tail call noundef nonnull align 8 dereferenceable(24) ptr @_ZNK25cmInstallCommandArguments17GetConfigurationsB5cxx11Ev(ptr noundef nonnull align 8 dereferenceable(440) %3)
  %13 = tail call noundef nonnull align 8 dereferenceable(32) ptr @_ZNK25cmInstallCommandArguments12GetComponentB5cxx11Ev(ptr noundef nonnull align 8 dereferenceable(440) %3)
  %14 = getelementptr inbounds i8, ptr %1, i64 8
  %15 = load ptr, ptr %14, align 8
  %16 = tail call noundef i32 @_ZN18cmInstallGenerator18SelectMessageLevelEP10cmMakefileb(ptr noundef %15, i1 noundef zeroext false)
  store i32 %16, ptr %6, align 4
  %17 = tail call noundef zeroext i1 @_ZNK25cmInstallCommandArguments17GetExcludeFromAllEv(ptr noundef nonnull align 8 dereferenceable(440) %3)
  %18 = zext i1 %17 to i8
  store i8 %18, ptr %7, align 1
  %19 = tail call noundef zeroext i1 @_ZNK25cmInstallCommandArguments11GetOptionalEv(ptr noundef nonnull align 8 dereferenceable(440) %3)
  %20 = zext i1 %19 to i8
  store i8 %20, ptr %8, align 1
  %21 = load ptr, ptr %14, align 8
  call void @_ZNK10cmMakefile12GetBacktraceEv(ptr dead_on_unwind nonnull writable sret(%class.cmListFileBacktrace) align 8 %9, ptr noundef nonnull align 8 dereferenceable(3520) %21)
  invoke void @_ZSt11make_uniqueI42cmInstallImportedRuntimeArtifactsGeneratorJRKNSt7__cxx1112basic_stringIcSt11char_traitsIcESaIcEEES8_S8_RKSt6vectorIS6_SaIS6_EES8_N18cmInstallGenerator12MessageLevelEbb19cmListFileBacktraceEENSt8__detail9_MakeUniqIT_E15__single_objectEDpOT0_(ptr dead_on_unwind writable sret(%"class.std::unique_ptr.614") align 8 %0, ptr noundef nonnull align 8 dereferenceable(32) %10, ptr noundef nonnull align 8 dereferenceable(32) %4, ptr noundef nonnull align 8 dereferenceable(32) %11, ptr noundef nonnull align 8 dereferenceable(24) %12, ptr noundef nonnull align 8 dereferenceable(32) %13, ptr noundef nonnull align 4 dereferenceable(4) %6, ptr noundef nonnull align 1 dereferenceable(1) %7, ptr noundef nonnull align 1 dereferenceable(1) %8, ptr noundef nonnull align 8 dereferenceable(16) %9)
          to label %22 unwind label %59

22:                                               ; preds = %5
  %23 = getelementptr inbounds i8, ptr %9, i64 8
  %24 = load ptr, ptr %23, align 8
  %.not.i.i.i.i.i = icmp eq ptr %24, null
  br i1 %.not.i.i.i.i.i, label %_ZN19cmListFileBacktraceD2Ev.exit, label %25

25:                                               ; preds = %22
  %26 = getelementptr inbounds i8, ptr %24, i64 8
  %27 = load atomic i64, ptr %26 acquire, align 8
  %28 = icmp eq i64 %27, 4294967297
  %29 = trunc i64 %27 to i32
  br i1 %28, label %30, label %35

30:                                               ; preds = %25
  store i32 0, ptr %26, align 8
  %31 = getelementptr inbounds i8, ptr %24, i64 12
  store i32 0, ptr %31, align 4
  %32 = load ptr, ptr %24, align 8
  %33 = getelementptr inbounds i8, ptr %32, i64 16
  %34 = load ptr, ptr %33, align 8
  call void %34(ptr noundef nonnull align 8 dereferenceable(16) %24) #19
  br label %_ZNSt16_Sp_counted_baseILN9__gnu_cxx12_Lock_policyE2EE24_M_release_last_use_coldEv.exit.sink.split.i.i.i.i.i.i

35:                                               ; preds = %25
  %36 = load i8, ptr @__libc_single_threaded, align 1
  %.not.i.i.i.i.i.i = icmp eq i8 %36, 0
  br i1 %.not.i.i.i.i.i.i, label %39, label %37

37:                                               ; preds = %35
  %38 = add nsw i32 %29, -1
  store i32 %38, ptr %26, align 4
  br label %41

39:                                               ; preds = %35
  %40 = atomicrmw volatile add ptr %26, i32 -1 acq_rel, align 4
  br label %41

41:                                               ; preds = %39, %37
  %.0.i.i.i.i.i.i = phi i32 [ %29, %37 ], [ %40, %39 ]
  %42 = icmp eq i32 %.0.i.i.i.i.i.i, 1
  br i1 %42, label %43, label %_ZN19cmListFileBacktraceD2Ev.exit

43:                                               ; preds = %41
  %44 = load ptr, ptr %24, align 8
  %45 = getelementptr inbounds i8, ptr %44, i64 16
  %46 = load ptr, ptr %45, align 8
  call void %46(ptr noundef nonnull align 8 dereferenceable(16) %24) #19
  %47 = getelementptr inbounds i8, ptr %24, i64 12
  %48 = load i8, ptr @__libc_single_threaded, align 1
  %.not.i.i.i.i.i.i.i.i = icmp eq i8 %48, 0
  br i1 %.not.i.i.i.i.i.i.i.i, label %52, label %49

49:                                               ; preds = %43
  %50 = load i32, ptr %47, align 4
  %51 = add nsw i32 %50, -1
  store i32 %51, ptr %47, align 4
  br label %54

52:                                               ; preds = %43
  %53 = atomicrmw volatile add ptr %47, i32 -1 acq_rel, align 4
  br label %54

54:                                               ; preds = %52, %49
  %.0.i.i.i.i.i.i.i.i = phi i32 [ %50, %49 ], [ %53, %52 ]
  %55 = icmp eq i32 %.0.i.i.i.i.i.i.i.i, 1
  br i1 %55, label %_ZNSt16_Sp_counted_baseILN9__gnu_cxx12_Lock_policyE2EE24_M_release_last_use_coldEv.exit.sink.split.i.i.i.i.i.i, label %_ZN19cmListFileBacktraceD2Ev.exit

_ZNSt16_Sp_counted_baseILN9__gnu_cxx12_Lock_policyE2EE24_M_release_last_use_coldEv.exit.sink.split.i.i.i.i.i.i: ; preds = %54, %30
  %56 = load ptr, ptr %24, align 8
  %57 = getelementptr inbounds i8, ptr %56, i64 24
  %58 = load ptr, ptr %57, align 8
  call void %58(ptr noundef nonnull align 8 dereferenceable(16) %24) #19
  br label %_ZN19cmListFileBacktraceD2Ev.exit

_ZN19cmListFileBacktraceD2Ev.exit:                ; preds = %22, %41, %54, %_ZNSt16_Sp_counted_baseILN9__gnu_cxx12_Lock_policyE2EE24_M_release_last_use_coldEv.exit.sink.split.i.i.i.i.i.i
  ret void

59:                                               ; preds = %5
  %60 = landingpad { ptr, i32 }
          cleanup
  call void @_ZN19cmListFileBacktraceD2Ev(ptr noundef nonnull align 8 dereferenceable(16) %9) #19
  resume { ptr, i32 } %60
}